; Function Attrs: nounwind uwtable
define internal fastcc noundef i32 @_add_tres(ptr noundef readonly captures(none) %0, ptr readonly captures(none) %.8.val, ptr noundef writeonly captures(none) initializes((0, 8)) %1) unnamed_addr #0 {
  %3 = tail call i32 @get_log_level() #10
  %4 = icmp sgt i32 %3, 5
  br i1 %4, label %5, label %9

5:                                                ; preds = %2
  %6 = load ptr, ptr %0, align 8
  %7 = getelementptr inbounds nuw i8, ptr %6, i64 60
  %8 = load i32, ptr %7, align 4
  tail call void (i32, ptr, ...) @log_var(i32 noundef 6, ptr noundef nonnull @.str.27, i32 noundef %8) #10
  br label %9

9:                                                ; preds = %5, %2
  %10 = getelementptr inbounds nuw i8, ptr %0, i64 56
  %11 = load ptr, ptr %10, align 8
  %12 = load ptr, ptr %0, align 8
  %13 = getelementptr inbounds nuw i8, ptr %12, i64 8
  %14 = load i32, ptr %13, align 8
  %15 = load ptr, ptr %.8.val, align 8
  %16 = tail call i32 @acct_storage_g_add_tres(ptr noundef %11, i32 noundef %14, ptr noundef %15) #10
  %17 = load ptr, ptr %0, align 8
  %18 = tail call ptr @slurm_persist_make_rc_msg(ptr noundef %17, i32 noundef %16, ptr noundef null, i16 noundef zeroext 1485) #10
  store ptr %18, ptr %1, align 8
  %19 = load ptr, ptr %10, align 8
  %20 = tail call i32 @acct_storage_g_commit(ptr noundef %19, i1 noundef zeroext true) #10
  ret i32 %16
}